target datalayout = "e-m:e-p270:32:32-p271:32:32-p272:64:64-i64:64-i128:128-f80:128-n8:16:32:64-S128"
target triple = "x86_64-pc-linux-gnu"

%struct.TupleTableSlot = type { i32, i16, i16, ptr, ptr, ptr, ptr, ptr, %struct.ItemPointerData, i32 }
%struct.ItemPointerData = type { %struct.BlockIdData, i16 }
%struct.BlockIdData = type { i16, i16 }
%struct.HeapTupleTableSlot = type { %struct.TupleTableSlot, ptr, i32, %struct.HeapTupleData }
%struct.HeapTupleData = type { i32, %struct.ItemPointerData, i32, ptr }
%struct.BufferHeapTupleTableSlot = type { %struct.HeapTupleTableSlot, i32 }

@.str.1 = private unnamed_addr constant [13 x i8] c"execTuples.c\00", align 1
@.str.2 = private unnamed_addr constant [62 x i8] c"trying to store an on-disk heap tuple into wrong type of slot\00", align 1
@__func__.ExecStoreBufferHeapTuple = private unnamed_addr constant [25 x i8] c"ExecStoreBufferHeapTuple\00", align 1

; Function Attrs: inlinehint nounwind uwtable
define internal zeroext i1 @BufferIsValid(i32 noundef %0) #4 {
  %2 = alloca i32, align 4
  store i32 %0, ptr %2, align 4
  %3 = load i32, ptr %2, align 4
  %4 = icmp ne i32 %3, 0
  ret i1 %4
}

; Function Attrs: inlinehint nounwind uwtable
define internal void @tts_buffer_heap_store_tuple(ptr noundef %0, ptr noundef %1, i32 noundef %2, i1 noundef zeroext %3) #4 {
  %5 = alloca ptr, align 8
  %6 = alloca ptr, align 8
  %7 = alloca i32, align 4
  %8 = alloca i8, align 1
  %9 = alloca ptr, align 8
  store ptr %0, ptr %5, align 8
  store ptr %1, ptr %6, align 8
  store i32 %2, ptr %7, align 4
  %10 = zext i1 %3 to i8
  store i8 %10, ptr %8, align 1
  call void @llvm.lifetime.start.p0(i64 8, ptr %9) #10
  %11 = load ptr, ptr %5, align 8
  store ptr %11, ptr %9, align 8
  %12 = load ptr, ptr %5, align 8
  %13 = getelementptr inbounds nuw %struct.TupleTableSlot, ptr %12, i32 0, i32 1
  %14 = load i16, ptr %13, align 4
  %15 = zext i16 %14 to i32
  %16 = and i32 %15, 4
  %17 = icmp ne i32 %16, 0
  br i1 %17, label %18, label %29

18:                                               ; preds = %4
  %19 = load ptr, ptr %9, align 8
  %20 = getelementptr inbounds nuw %struct.BufferHeapTupleTableSlot, ptr %19, i32 0, i32 0
  %21 = getelementptr inbounds nuw %struct.HeapTupleTableSlot, ptr %20, i32 0, i32 1
  %22 = load ptr, ptr %21, align 8
  call void @heap_freetuple(ptr noundef %22)
  %23 = load ptr, ptr %5, align 8
  %24 = getelementptr inbounds nuw %struct.TupleTableSlot, ptr %23, i32 0, i32 1
  %25 = load i16, ptr %24, align 4
  %26 = zext i16 %25 to i32
  %27 = and i32 %26, -5
  %28 = trunc i32 %27 to i16
  store i16 %28, ptr %24, align 4
  br label %29

29:                                               ; preds = %18, %4
  %30 = load ptr, ptr %5, align 8
  %31 = getelementptr inbounds nuw %struct.TupleTableSlot, ptr %30, i32 0, i32 1
  %32 = load i16, ptr %31, align 4
  %33 = zext i16 %32 to i32
  %34 = and i32 %33, -3
  %35 = trunc i32 %34 to i16
  store i16 %35, ptr %31, align 4
  %36 = load ptr, ptr %5, align 8
  %37 = getelementptr inbounds nuw %struct.TupleTableSlot, ptr %36, i32 0, i32 2
  store i16 0, ptr %37, align 2
  %38 = load ptr, ptr %6, align 8
  %39 = load ptr, ptr %9, align 8
  %40 = getelementptr inbounds nuw %struct.BufferHeapTupleTableSlot, ptr %39, i32 0, i32 0
  %41 = getelementptr inbounds nuw %struct.HeapTupleTableSlot, ptr %40, i32 0, i32 1
  store ptr %38, ptr %41, align 8
  %42 = load ptr, ptr %9, align 8
  %43 = getelementptr inbounds nuw %struct.BufferHeapTupleTableSlot, ptr %42, i32 0, i32 0
  %44 = getelementptr inbounds nuw %struct.HeapTupleTableSlot, ptr %43, i32 0, i32 2
  store i32 0, ptr %44, align 8
  %45 = load ptr, ptr %5, align 8
  %46 = getelementptr inbounds nuw %struct.TupleTableSlot, ptr %45, i32 0, i32 8
  %47 = load ptr, ptr %6, align 8
  %48 = getelementptr inbounds nuw %struct.HeapTupleData, ptr %47, i32 0, i32 1
  call void @llvm.memcpy.p0.p0.i64(ptr align 8 %46, ptr align 4 %48, i64 6, i1 false)
  %49 = load ptr, ptr %9, align 8
  %50 = getelementptr inbounds nuw %struct.BufferHeapTupleTableSlot, ptr %49, i32 0, i32 1
  %51 = load i32, ptr %50, align 8
  %52 = load i32, ptr %7, align 4
  %53 = icmp ne i32 %51, %52
  br i1 %53, label %54, label %75

54:                                               ; preds = %29
  %55 = load ptr, ptr %9, align 8
  %56 = getelementptr inbounds nuw %struct.BufferHeapTupleTableSlot, ptr %55, i32 0, i32 1
  %57 = load i32, ptr %56, align 8
  %58 = call zeroext i1 @BufferIsValid(i32 noundef %57)
  br i1 %58, label %59, label %63

59:                                               ; preds = %54
  %60 = load ptr, ptr %9, align 8
  %61 = getelementptr inbounds nuw %struct.BufferHeapTupleTableSlot, ptr %60, i32 0, i32 1
  %62 = load i32, ptr %61, align 8
  call void @ReleaseBuffer(i32 noundef %62)
  br label %63

63:                                               ; preds = %59, %54
  %64 = load i32, ptr %7, align 4
  %65 = load ptr, ptr %9, align 8
  %66 = getelementptr inbounds nuw %struct.BufferHeapTupleTableSlot, ptr %65, i32 0, i32 1
  store i32 %64, ptr %66, align 8
  %67 = load i8, ptr %8, align 1, !range !4, !noundef !5
  %68 = trunc i8 %67 to i1
  br i1 %68, label %74, label %69

69:                                               ; preds = %63
  %70 = load i32, ptr %7, align 4
  %71 = call zeroext i1 @BufferIsValid(i32 noundef %70)
  br i1 %71, label %72, label %74

72:                                               ; preds = %69
  %73 = load i32, ptr %7, align 4
  call void @IncrBufferRefCount(i32 noundef %73)
  br label %74

74:                                               ; preds = %72, %69, %63
  br label %84

75:                                               ; preds = %29
  %76 = load i8, ptr %8, align 1, !range !4, !noundef !5
  %77 = trunc i8 %76 to i1
  br i1 %77, label %78, label %83

78:                                               ; preds = %75
  %79 = load i32, ptr %7, align 4
  %80 = call zeroext i1 @BufferIsValid(i32 noundef %79)
  br i1 %80, label %81, label %83

81:                                               ; preds = %78
  %82 = load i32, ptr %7, align 4
  call void @ReleaseBuffer(i32 noundef %82)
  br label %83

83:                                               ; preds = %81, %78, %75
  br label %84

84:                                               ; preds = %83, %74
  call void @llvm.lifetime.end.p0(i64 8, ptr %9) #10
  ret void
}

; Function Attrs: nounwind uwtable
define dso_local ptr @ExecStoreBufferHeapTuple(ptr noundef %0, ptr noundef %1, i32 noundef %2) #0 {
  %4 = alloca ptr, align 8
  %5 = alloca ptr, align 8
  %6 = alloca i32, align 4
  store ptr %0, ptr %4, align 8
  store ptr %1, ptr %5, align 8
  store i32 %2, ptr %6, align 4
  %7 = load ptr, ptr %5, align 8
  %8 = getelementptr inbounds nuw %struct.TupleTableSlot, ptr %7, i32 0, i32 3
  %9 = load ptr, ptr %8, align 8
  %10 = icmp eq ptr %9, @TTSOpsBufferHeapTuple
  %11 = xor i1 %10, true
  %12 = zext i1 %11 to i32
  %13 = icmp ne i32 %12, 0
  %14 = zext i1 %13 to i32
  %15 = sext i32 %14 to i64
  %16 = call i64 @llvm.expect.i64(i64 %15, i64 0)
  %17 = icmp ne i64 %16, 0
  br i1 %17, label %18, label %28

18:                                               ; preds = %3
  br label %19

19:                                               ; preds = %18
  br i1 true, label %20, label %22

20:                                               ; preds = %19
  %21 = call zeroext i1 @errstart_cold(i32 noundef 21, ptr noundef null) #11
  br i1 %21, label %24, label %26

22:                                               ; preds = %19
  %23 = call zeroext i1 @errstart(i32 noundef 21, ptr noundef null)
  br i1 %23, label %24, label %26

24:                                               ; preds = %22, %20
  %25 = call i32 (ptr, ...) @errmsg_internal(ptr noundef @.str.2)
  call void @errfinish(ptr noundef @.str.1, i32 noundef 1592, ptr noundef @__func__.ExecStoreBufferHeapTuple)
  br label %26

26:                                               ; preds = %24, %22, %20
  unreachable

27:                                               ; No predecessors!
  br label %28

28:                                               ; preds = %27, %3
  %29 = load ptr, ptr %5, align 8
  %30 = load ptr, ptr %4, align 8
  %31 = load i32, ptr %6, align 4
  call void @tts_buffer_heap_store_tuple(ptr noundef %29, ptr noundef %30, i32 noundef %31, i1 noundef zeroext false)
  %32 = load ptr, ptr %4, align 8
  %33 = getelementptr inbounds nuw %struct.HeapTupleData, ptr %32, i32 0, i32 2
  %34 = load i32, ptr %33, align 4
  %35 = load ptr, ptr %5, align 8
  %36 = getelementptr inbounds nuw %struct.TupleTableSlot, ptr %35, i32 0, i32 9
  store i32 %34, ptr %36, align 8
  %37 = load ptr, ptr %5, align 8
  ret ptr %37
}